Certificate:
    Data:
        Version: 3 (0x2)
        Serial Number:
            91:08:e5:e9:ca:03:33:56:ad:3f:f1:89:fc:25:e9:95
        Signature Algorithm: sha256WithRSAEncryption
        Issuer: CN=tde-roqu
        Validity
            Not Before: Dec  5 18:01:52 2019 GMT
            Not After : Nov 19 18:01:52 2022 GMT
        Subject: CN=192.168.0.13
        Subject Public Key Info:
            Public Key Algorithm: rsaEncryption
                RSA Public-Key: (2048 bit)
                Modulus:
                    00:f0:95:5a:50:53:fd:c4:5c:aa:84:60:5a:8e:e3:
                    48:47:a0:c3:77:6c:39:d9:c1:df:8a:9e:2a:b8:ee:
                    94:24:d1:ad:f7:92:c1:aa:e5:9b:28:64:c6:8b:5a:
                    df:50:ee:06:66:88:3d:28:b2:22:06:81:19:ff:83:
                    58:96:da:c3:5d:28:9b:4d:fd:30:a6:67:08:79:78:
                    cb:04:bb:d4:20:87:f1:93:d2:1f:bc:e0:bb:4d:96:
                    70:58:a7:51:f3:4f:62:5b:dd:b4:9b:71:3a:e0:7c:
                    46:6d:3c:d6:53:3d:ca:65:b2:b8:63:c8:9b:e0:30:
                    69:aa:7e:74:0c:4c:b8:30:68:83:1d:80:14:e0:57:
                    ec:5d:a7:9c:05:7c:a2:5f:41:95:98:4e:53:a8:b1:
                    5e:3b:de:8f:99:5a:0f:5c:20:a3:ee:67:32:79:72:
                    89:ae:3e:3b:81:8f:60:9a:43:15:3c:be:3f:a2:5e:
                    4a:7f:61:a4:15:a5:10:e9:15:6f:cd:24:c1:85:02:
                    13:0b:54:b3:86:ab:95:8b:ad:b3:25:14:6e:23:ec:
                    06:35:c4:dd:d1:25:94:e8:9c:48:20:b4:28:27:35:
                    0f:47:9c:1f:1f:fb:c4:8c:42:b0:b2:4a:b0:75:c3:
                    43:d6:7b:bc:2d:d2:05:d5:ee:62:21:6d:20:21:e5:
                    79:e3
                Exponent: 65537 (0x10001)
        X509v3 extensions:
            X509v3 Basic Constraints: 
                CA:FALSE
            X509v3 Subject Key Identifier: 
                FE:D4:90:9F:98:D6:54:61:FE:47:AE:DE:38:77:E9:56:0C:47:88:02
            X509v3 Authority Key Identifier: 
                keyid:6F:4C:47:DD:3F:D1:34:C2:6B:3B:2D:78:0E:A4:53:D4:2A:E3:F9:3F
                DirName:/CN=tde-roqu
                serial:0A:5F:5A:AD:F3:E3:BC:ED:05:7B:A8:25:16:54:4A:C5:FA:AC:62:31

            X509v3 Extended Key Usage: 
                TLS Web Server Authentication
            X509v3 Key Usage: 
                Digital Signature, Key Encipherment
            X509v3 Subject Alternative Name: 
                IP Address:192.168.0.13
    Signature Algorithm: sha256WithRSAEncryption
         52:ea:d7:3b:47:be:e4:1c:22:67:99:10:11:9b:cd:c2:70:34:
         34:8a:ca:41:87:c3:e1:b3:70:fa:eb:d1:09:2d:11:a5:49:eb:
         94:6d:9b:0f:05:4d:6a:ed:07:1a:4f:22:c7:21:f7:77:c3:d9:
         79:83:74:7f:03:ec:23:94:c7:a7:9b:56:42:83:f2:5d:ed:2a:
         be:d7:5f:26:53:e2:e2:4b:7e:a2:ec:c5:36:6f:c3:da:0a:94:
         11:32:f3:60:bb:65:c8:ad:f7:09:3c:78:54:ce:bf:a2:de:c7:
         f4:e4:66:a2:33:6d:b9:ec:5c:34:d4:c0:3c:11:a6:f8:c6:2c:
         17:8a:38:f3:0b:e9:70:4f:6c:fa:65:0e:dc:4f:ca:38:3f:25:
         fd:29:73:29:37:35:eb:56:a5:ad:70:f3:ed:a0:7f:f9:f0:b3:
         8f:2b:3c:da:a2:af:73:9d:cd:c5:dd:a7:89:b3:59:78:36:52:
         35:ea:f4:7a:8c:91:fd:e6:04:c8:b3:85:3b:b9:8d:b7:64:da:
         e4:4d:b5:ec:af:85:3e:5a:49:25:50:1a:9d:d9:30:4f:b3:e4:
         34:5e:73:35:53:eb:32:54:50:d7:ed:1e:99:fc:ad:05:39:5f:
         5b:d4:98:73:4e:0f:63:9b:0e:65:9c:9c:47:fc:f4:52:e9:b6:
         f3:51:94:3a
-----BEGIN CERTIFICATE-----
MIIDZjCCAk6gAwIBAgIRAJEI5enKAzNWrT/xifwl6ZUwDQYJKoZIhvcNAQELBQAw
EzERMA8GA1UEAwwIdGRlLXJvcXUwHhcNMTkxMjA1MTgwMTUyWhcNMjIxMTE5MTgw
MTUyWjAXMRUwEwYDVQQDDAwxOTIuMTY4LjAuMTMwggEiMA0GCSqGSIb3DQEBAQUA
A4IBDwAwggEKAoIBAQDwlVpQU/3EXKqEYFqO40hHoMN3bDnZwd+Kniq47pQk0a33
ksGq5ZsoZMaLWt9Q7gZmiD0osiIGgRn/g1iW2sNdKJtN/TCmZwh5eMsEu9Qgh/GT
0h+84LtNlnBYp1HzT2Jb3bSbcTrgfEZtPNZTPcplsrhjyJvgMGmqfnQMTLgwaIMd
gBTgV+xdp5wFfKJfQZWYTlOosV473o+ZWg9cIKPuZzJ5comuPjuBj2CaQxU8vj+i
Xkp/YaQVpRDpFW/NJMGFAhMLVLOGq5WLrbMlFG4j7AY1xN3RJZTonEggtCgnNQ9H
nB8f+8SMQrCySrB1w0PWe7wt0gXV7mIhbSAh5XnjAgMBAAGjgbAwga0wCQYDVR0T
BAIwADAdBgNVHQ4EFgQU/tSQn5jWVGH+R67eOHfpVgxHiAIwTgYDVR0jBEcwRYAU
b0xH3T/RNMJrOy14DqRT1Crj+T+hF6QVMBMxETAPBgNVBAMMCHRkZS1yb3F1ghQK
X1qt8+O87QV7qCUWVErF+qxiMTATBgNVHSUEDDAKBggrBgEFBQcDATALBgNVHQ8E
BAMCBaAwDwYDVR0RBAgwBocEwKgADTANBgkqhkiG9w0BAQsFAAOCAQEAUurXO0e+
5BwiZ5kQEZvNwnA0NIrKQYfD4bNw+uvRCS0RpUnrlG2bDwVNau0HGk8ixyH3d8PZ
eYN0fwPsI5THp5tWQoPyXe0qvtdfJlPi4kt+ouzFNm/D2gqUETLzYLtlyK33CTx4
VM6/ot7H9ORmojNtuexcNNTAPBGm+MYsF4o48wvpcE9s+mUO3E/KOD8l/SlzKTc1
61alrXDz7aB/+fCzjys82qKvc53Nxd2nibNZeDZSNer0eoyR/eYEyLOFO7mNt2Ta
5E217K+FPlpJJVAandkwT7PkNF5zNVPrMlRQ1+0emfytBTlfW9SYc04PY5sOZZyc
R/z0Uum281GUOg==
-----END CERTIFICATE-----
