Certificate:
    Data:
        Version: 3 (0x2)
        Serial Number:
            09:d5:9b:16:9d:e1:d7:4a:65:bb:2d:22:5f:a2:69:9e
        Signature Algorithm: sha256WithRSAEncryption
        Issuer: CN=tde-roqu
        Validity
            Not Before: Dec  5 18:02:30 2019 GMT
            Not After : Nov 19 18:02:30 2022 GMT
        Subject: CN=user1
        Subject Public Key Info:
            Public Key Algorithm: rsaEncryption
                RSA Public-Key: (2048 bit)
                Modulus:
                    00:c9:c6:13:65:aa:54:22:3b:49:b6:2f:c6:c4:e7:
                    0b:1a:d7:fc:fa:6a:49:5c:6b:2b:91:d2:63:00:bc:
                    cc:9b:9a:44:ac:da:a8:96:09:e2:80:6c:87:37:6d:
                    5b:d9:79:94:dc:80:a6:d9:15:0b:16:66:79:0d:6b:
                    59:22:aa:56:44:7b:bc:73:19:04:54:c5:dc:bc:5c:
                    af:7d:99:5b:d9:91:2e:6e:c6:e1:f4:eb:c8:d6:12:
                    1c:25:1d:08:6f:ba:ff:96:7d:83:12:48:e4:c7:4a:
                    90:bf:b1:6d:d3:d1:4d:1b:5a:99:79:01:52:59:c7:
                    c1:f7:63:cc:5a:87:ef:5f:98:a2:23:47:0c:8c:3f:
                    b1:b7:88:24:f8:c1:62:3b:7d:fc:45:87:97:ec:0c:
                    b0:1b:2d:75:d4:e3:7f:61:2a:92:4b:87:cd:68:69:
                    e7:7b:a2:85:c1:a0:49:0a:48:8f:78:92:29:ca:26:
                    2c:dc:a8:e3:c0:e4:ff:34:d5:c0:47:b7:2f:fb:15:
                    3e:6b:33:f6:b8:e8:82:65:75:18:2d:43:2b:8e:36:
                    8b:19:38:66:91:a7:1b:de:6f:f4:44:16:66:63:ed:
                    1b:ac:17:cf:8a:43:e1:c6:7b:94:e4:46:22:e4:a7:
                    0d:38:a3:86:c0:eb:ea:c2:ae:56:3c:4e:0a:48:e5:
                    cd:a3
                Exponent: 65537 (0x10001)
        X509v3 extensions:
            X509v3 Basic Constraints: 
                CA:FALSE
            X509v3 Subject Key Identifier: 
                B5:6F:EC:67:9C:27:0E:9F:71:26:4F:01:C3:FD:72:E7:64:59:3B:8B
            X509v3 Authority Key Identifier: 
                keyid:6F:4C:47:DD:3F:D1:34:C2:6B:3B:2D:78:0E:A4:53:D4:2A:E3:F9:3F
                DirName:/CN=tde-roqu
                serial:0A:5F:5A:AD:F3:E3:BC:ED:05:7B:A8:25:16:54:4A:C5:FA:AC:62:31

            X509v3 Extended Key Usage: 
                TLS Web Client Authentication
            X509v3 Key Usage: 
                Digital Signature
    Signature Algorithm: sha256WithRSAEncryption
         b3:63:33:a8:95:e3:b9:4a:b5:f3:87:14:dc:6d:76:56:f1:5d:
         c6:5a:42:58:b8:1e:d6:4f:68:3d:c9:f9:11:79:37:f3:05:a8:
         bb:df:36:de:90:f7:af:59:2b:95:62:e3:f9:6e:d5:b2:60:ac:
         7d:11:76:68:fc:ff:8f:8f:ca:6e:cf:01:4b:83:f5:26:5d:30:
         ff:cf:99:fc:e7:6c:4d:85:0a:06:69:8d:fc:60:b6:e8:69:de:
         f7:3e:5f:f6:53:6c:0b:73:67:15:8b:8f:ac:28:69:32:b1:14:
         f0:8c:cc:7f:20:61:49:27:10:ca:2a:d3:40:e9:4d:b7:d8:67:
         01:60:e1:21:03:ea:d2:da:c9:f0:21:61:a8:07:9f:38:5f:53:
         96:0f:8e:53:8c:8c:cd:8f:2a:fe:f6:e7:06:73:2b:14:61:83:
         12:a9:94:39:b4:71:d2:ec:c8:fb:07:3c:9e:3b:da:48:c3:d6:
         0b:36:dc:a1:aa:82:c2:d1:7e:35:cc:49:59:d8:cc:dc:b8:c9:
         61:12:7a:9c:7a:93:18:db:98:48:65:4f:61:f1:59:a1:5a:7b:
         94:5a:58:e7:10:45:6c:72:fa:c5:ef:d9:10:aa:26:8a:03:66:
         23:d3:86:43:da:90:77:9b:ed:bc:15:aa:e3:83:91:ec:7f:a0:
         99:23:b5:7e
-----BEGIN CERTIFICATE-----
MIIDTTCCAjWgAwIBAgIQCdWbFp3h10pluy0iX6JpnjANBgkqhkiG9w0BAQsFADAT
MREwDwYDVQQDDAh0ZGUtcm9xdTAeFw0xOTEyMDUxODAyMzBaFw0yMjExMTkxODAy
MzBaMBAxDjAMBgNVBAMMBXVzZXIxMIIBIjANBgkqhkiG9w0BAQEFAAOCAQ8AMIIB
CgKCAQEAycYTZapUIjtJti/GxOcLGtf8+mpJXGsrkdJjALzMm5pErNqolgnigGyH
N21b2XmU3ICm2RULFmZ5DWtZIqpWRHu8cxkEVMXcvFyvfZlb2ZEubsbh9OvI1hIc
JR0Ib7r/ln2DEkjkx0qQv7Ft09FNG1qZeQFSWcfB92PMWofvX5iiI0cMjD+xt4gk
+MFiO338RYeX7AywGy111ON/YSqSS4fNaGnne6KFwaBJCkiPeJIpyiYs3KjjwOT/
NNXAR7cv+xU+azP2uOiCZXUYLUMrjjaLGThmkacb3m/0RBZmY+0brBfPikPhxnuU
5EYi5KcNOKOGwOvqwq5WPE4KSOXNowIDAQABo4GfMIGcMAkGA1UdEwQCMAAwHQYD
VR0OBBYEFLVv7GecJw6fcSZPAcP9cudkWTuLME4GA1UdIwRHMEWAFG9MR90/0TTC
azsteA6kU9Qq4/k/oRekFTATMREwDwYDVQQDDAh0ZGUtcm9xdYIUCl9arfPjvO0F
e6glFlRKxfqsYjEwEwYDVR0lBAwwCgYIKwYBBQUHAwIwCwYDVR0PBAQDAgeAMA0G
CSqGSIb3DQEBCwUAA4IBAQCzYzOoleO5SrXzhxTcbXZW8V3GWkJYuB7WT2g9yfkR
eTfzBai73zbekPevWSuVYuP5btWyYKx9EXZo/P+Pj8puzwFLg/UmXTD/z5n852xN
hQoGaY38YLboad73Pl/2U2wLc2cVi4+sKGkysRTwjMx/IGFJJxDKKtNA6U232GcB
YOEhA+rS2snwIWGoB584X1OWD45TjIzNjyr+9ucGcysUYYMSqZQ5tHHS7Mj7Bzye
O9pIw9YLNtyhqoLC0X41zElZ2MzcuMlhEnqcepMY25hIZU9h8VmhWnuUWljnEEVs
cvrF79kQqiaKA2Yj04ZD2pB3m+28Farjg5Hsf6CZI7V+
-----END CERTIFICATE-----
